; Function Attrs: mustprogress nofree norecurse nounwind willreturn memory(readwrite, inaccessiblemem: none) uwtable
define void @_ZN7rocksdb23CompressionContextCache30ReturnCachedZSTDUncompressDataEl(ptr noundef nonnull readonly align 8 captures(none) dereferenceable(8) %0, i64 noundef %1) local_unnamed_addr #5 align 2 {
  %3 = load ptr, ptr %0, align 8, !tbaa !4
  %4 = load ptr, ptr %3, align 8, !tbaa !24
  %5 = getelementptr inbounds nuw %"struct.rocksdb::compression_cache::ZSTDCachedData", ptr %4, i64 %1
  %6 = getelementptr inbounds nuw i8, ptr %5, i64 16
  %7 = ptrtoint ptr %5 to i64
  %8 = atomicrmw xchg ptr %6, i64 %7 seq_cst, align 8
  ret void
}